((i__main__
User
p1
(dp2
S'username'
p3
S'lesleybolesley'
p4
sS'id'
p5
S'47608356@N06'
p6
sS'profile_url'
p7
S'http://www.flickr.com/people/jameselliottimages/'
p8
sS'photos_url'
p9
S'http://www.flickr.com/photos/jameselliottimages/'
p10
sb(lp11
S'72157623428887405'
p12
a(dp13
g12
(i__main__
PhotoSet
p14
(dp15
S'title'
p16
S'Flowers'
p17
sS'primary'
p18
S'4363041657'
p19
sS'photos'
p20
(lp21
S'4363041657'
p22
aS'4363784270'
p23
aS'4363783546'
p24
aS'4363784708'
p25
aS'4363784500'
p26
aS'4363784098'
p27
aS'4363783906'
p28
aS'4363041295'
p29
aS'4363783168'
p30
aS'4363040933'
p31
aS'4363782816'
p32
aS'4363040567'
p33
aS'4363040403'
p34
aS'4363040133'
p35
aS'4363039947'
p36
aS'4363039713'
p37
aS'4363039439'
p38
aS'4363039191'
p39
aS'4363039003'
p40
aS'4363780910'
p41
aS'4363038571'
p42
aS'4363038387'
p43
aS'4363780330'
p44
aS'4363037987'
p45
aS'4363779936'
p46
aS'4363037571'
p47
asS'pcount'
p48
S'26'
p49
sS'primary_imgurl'
p50
(dp51
S'Small'
p52
S'http://farm5.static.flickr.com/4034/4363041657_05e7b36f1d_m.jpg'
p53
sS'Large'
p54
S'http://farm5.static.flickr.com/4034/4363041657_05e7b36f1d_b.jpg'
p55
sS'Square'
p56
S'http://farm5.static.flickr.com/4034/4363041657_05e7b36f1d_s.jpg'
p57
sS'Thumbnail'
p58
S'http://farm5.static.flickr.com/4034/4363041657_05e7b36f1d_t.jpg'
p59
sS'Medium'
p60
S'http://farm5.static.flickr.com/4034/4363041657_05e7b36f1d.jpg'
p61
ssg5
g12
sS'desc'
p62
Nsbs(dp63
g31
(i__main__
Photo
p64
(dp65
g16
S'101'
p66
sS'img_urls'
p67
(dp68
S'Small'
p69
S'http://farm5.static.flickr.com/4069/4363040933_2afed25e45_m.jpg'
p70
sS'Large'
p71
S'http://farm5.static.flickr.com/4069/4363040933_2afed25e45_b.jpg'
p72
sS'Square'
p73
S'http://farm5.static.flickr.com/4069/4363040933_2afed25e45_s.jpg'
p74
sS'Thumbnail'
p75
S'http://farm5.static.flickr.com/4069/4363040933_2afed25e45_t.jpg'
p76
sS'Medium'
p77
S'http://farm5.static.flickr.com/4069/4363040933_2afed25e45.jpg'
p78
ssS'comment_count'
p79
S'0'
sS'taken'
p80
S'2008-06-26 09:53:11'
p81
sS'flickr_url'
p82
S'http://www.flickr.com/photos/jameselliottimages/4363040933/'
p83
sg5
g31
sg62
Nsbsg45
(i__main__
Photo
p84
(dp85
g16
S'10'
p86
sg67
(dp87
S'Small'
p88
S'http://farm3.static.flickr.com/2740/4363037987_e87d0aa5b6_m.jpg'
p89
sS'Large'
p90
S'http://farm3.static.flickr.com/2740/4363037987_e87d0aa5b6_b.jpg'
p91
sS'Square'
p92
S'http://farm3.static.flickr.com/2740/4363037987_e87d0aa5b6_s.jpg'
p93
sS'Thumbnail'
p94
S'http://farm3.static.flickr.com/2740/4363037987_e87d0aa5b6_t.jpg'
p95
sS'Medium'
p96
S'http://farm3.static.flickr.com/2740/4363037987_e87d0aa5b6.jpg'
p97
ssg79
S'0'
sg80
S'2007-02-04 13:31:53'
p98
sg82
S'http://www.flickr.com/photos/jameselliottimages/4363037987/'
p99
sg5
g45
sg62
Nsbsg28
(i__main__
Photo
p100
(dp101
g16
S'132'
p102
sg67
(dp103
S'Small'
p104
S'http://farm3.static.flickr.com/2735/4363783906_a1604c493b_m.jpg'
p105
sS'Large'
p106
S'http://farm3.static.flickr.com/2735/4363783906_a1604c493b_b.jpg'
p107
sS'Square'
p108
S'http://farm3.static.flickr.com/2735/4363783906_a1604c493b_s.jpg'
p109
sS'Thumbnail'
p110
S'http://farm3.static.flickr.com/2735/4363783906_a1604c493b_t.jpg'
p111
sS'Medium'
p112
S'http://farm3.static.flickr.com/2735/4363783906_a1604c493b.jpg'
p113
ssg79
S'0'
sg80
S'2008-06-26 10:18:12'
p114
sg82
S'http://www.flickr.com/photos/jameselliottimages/4363783906/'
p115
sg5
g28
sg62
Nsbsg26
(i__main__
Photo
p116
(dp117
g16
S'142'
p118
sg67
(dp119
S'Small'
p120
S'http://farm5.static.flickr.com/4056/4363784500_9a33252a0b_m.jpg'
p121
sS'Large'
p122
S'http://farm5.static.flickr.com/4056/4363784500_9a33252a0b_b.jpg'
p123
sS'Square'
p124
S'http://farm5.static.flickr.com/4056/4363784500_9a33252a0b_s.jpg'
p125
sS'Thumbnail'
p126
S'http://farm5.static.flickr.com/4056/4363784500_9a33252a0b_t.jpg'
p127
sS'Medium'
p128
S'http://farm5.static.flickr.com/4056/4363784500_9a33252a0b.jpg'
p129
ssg79
S'0'
sg80
S'2008-06-08 08:59:01'
p130
sg82
S'http://www.flickr.com/photos/jameselliottimages/4363784500/'
p131
sg5
g26
sg62
Nsbsg43
(i__main__
Photo
p132
(dp133
g16
S'27'
p134
sg67
(dp135
S'Small'
p136
S'http://farm3.static.flickr.com/2703/4363038387_f171bfdc4f_m.jpg'
p137
sS'Large'
p138
S'http://farm3.static.flickr.com/2703/4363038387_f171bfdc4f_b.jpg'
p139
sS'Square'
p140
S'http://farm3.static.flickr.com/2703/4363038387_f171bfdc4f_s.jpg'
p141
sS'Thumbnail'
p142
S'http://farm3.static.flickr.com/2703/4363038387_f171bfdc4f_t.jpg'
p143
sS'Medium'
p144
S'http://farm3.static.flickr.com/2703/4363038387_f171bfdc4f.jpg'
p145
ssg79
S'0'
sg80
S'2008-01-18 13:50:52'
p146
sg82
S'http://www.flickr.com/photos/jameselliottimages/4363038387/'
p147
sg5
g43
sg62
Nsbsg39
(i__main__
Photo
p148
(dp149
g16
S'53'
p150
sg67
(dp151
S'Small'
p152
S'http://farm3.static.flickr.com/2798/4363039191_0466e787e9_m.jpg'
p153
sS'Large'
p154
S'http://farm3.static.flickr.com/2798/4363039191_0466e787e9_b.jpg'
p155
sS'Square'
p156
S'http://farm3.static.flickr.com/2798/4363039191_0466e787e9_s.jpg'
p157
sS'Thumbnail'
p158
S'http://farm3.static.flickr.com/2798/4363039191_0466e787e9_t.jpg'
p159
sS'Medium'
p160
S'http://farm3.static.flickr.com/2798/4363039191_0466e787e9.jpg'
p161
ssg79
S'0'
sg80
S'2007-04-22 06:58:47'
p162
sg82
S'http://www.flickr.com/photos/jameselliottimages/4363039191/'
p163
sg5
g39
sg62
Nsbsg25
(i__main__
Photo
p164
(dp165
g16
S'150'
p166
sg67
(dp167
S'Small'
p168
S'http://farm5.static.flickr.com/4047/4363784708_4c1dde078c_m.jpg'
p169
sS'Large'
p170
S'http://farm5.static.flickr.com/4047/4363784708_4c1dde078c_b.jpg'
p171
sS'Square'
p172
S'http://farm5.static.flickr.com/4047/4363784708_4c1dde078c_s.jpg'
p173
sS'Thumbnail'
p174
S'http://farm5.static.flickr.com/4047/4363784708_4c1dde078c_t.jpg'
p175
sS'Medium'
p176
S'http://farm5.static.flickr.com/4047/4363784708_4c1dde078c.jpg'
p177
ssg79
S'0'
sg80
S'2008-01-27 13:30:08'
p178
sg82
S'http://www.flickr.com/photos/jameselliottimages/4363784708/'
p179
sg5
g25
sg62
Nsbsg24
(i__main__
Photo
p180
(dp181
g16
S'110'
p182
sg67
(dp183
S'Small'
p184
S'http://farm5.static.flickr.com/4057/4363783546_5625c501b8_m.jpg'
p185
sS'Large'
p186
S'http://farm5.static.flickr.com/4057/4363783546_5625c501b8_b.jpg'
p187
sS'Square'
p188
S'http://farm5.static.flickr.com/4057/4363783546_5625c501b8_s.jpg'
p189
sS'Thumbnail'
p190
S'http://farm5.static.flickr.com/4057/4363783546_5625c501b8_t.jpg'
p191
sS'Medium'
p192
S'http://farm5.static.flickr.com/4057/4363783546_5625c501b8.jpg'
p193
ssg79
S'0'
sg80
S'2008-06-08 08:40:04'
p194
sg82
S'http://www.flickr.com/photos/jameselliottimages/4363783546/'
p195
sg5
g24
sg62
Nsbsg27
(i__main__
Photo
p196
(dp197
g16
S'134'
p198
sg67
(dp199
S'Small'
p200
S'http://farm3.static.flickr.com/2718/4363784098_09b866aef2_m.jpg'
p201
sS'Large'
p202
S'http://farm3.static.flickr.com/2718/4363784098_09b866aef2_b.jpg'
p203
sS'Square'
p204
S'http://farm3.static.flickr.com/2718/4363784098_09b866aef2_s.jpg'
p205
sS'Thumbnail'
p206
S'http://farm3.static.flickr.com/2718/4363784098_09b866aef2_t.jpg'
p207
sS'Medium'
p208
S'http://farm3.static.flickr.com/2718/4363784098_09b866aef2.jpg'
p209
ssg79
S'0'
sg80
S'2008-05-24 08:16:13'
p210
sg82
S'http://www.flickr.com/photos/jameselliottimages/4363784098/'
p211
sg5
g27
sg62
Nsbsg36
(i__main__
Photo
p212
(dp213
g16
S'66'
p214
sg67
(dp215
S'Small'
p216
S'http://farm5.static.flickr.com/4013/4363039947_ff462def09_m.jpg'
p217
sS'Large'
p218
S'http://farm5.static.flickr.com/4013/4363039947_ff462def09_b.jpg'
p219
sS'Square'
p220
S'http://farm5.static.flickr.com/4013/4363039947_ff462def09_s.jpg'
p221
sS'Thumbnail'
p222
S'http://farm5.static.flickr.com/4013/4363039947_ff462def09_t.jpg'
p223
sS'Medium'
p224
S'http://farm5.static.flickr.com/4013/4363039947_ff462def09.jpg'
p225
ssg79
S'0'
sg80
S'2007-02-04 13:42:56'
p226
sg82
S'http://www.flickr.com/photos/jameselliottimages/4363039947/'
p227
sg5
g36
sg62
Nsbsg44
(i__main__
Photo
p228
(dp229
g16
S'16'
p230
sg67
(dp231
S'Small'
p232
S'http://farm5.static.flickr.com/4006/4363780330_a56035fceb_m.jpg'
p233
sS'Large'
p234
S'http://farm5.static.flickr.com/4006/4363780330_a56035fceb_b.jpg'
p235
sS'Square'
p236
S'http://farm5.static.flickr.com/4006/4363780330_a56035fceb_s.jpg'
p237
sS'Thumbnail'
p238
S'http://farm5.static.flickr.com/4006/4363780330_a56035fceb_t.jpg'
p239
sS'Medium'
p240
S'http://farm5.static.flickr.com/4006/4363780330_a56035fceb.jpg'
p241
ssg79
S'0'
sg80
S'2007-03-11 15:37:59'
p242
sg82
S'http://www.flickr.com/photos/jameselliottimages/4363780330/'
p243
sg5
g44
sg62
Nsbsg29
(i__main__
Photo
p244
(dp245
g16
S'106'
p246
sg67
(dp247
S'Small'
p248
S'http://farm3.static.flickr.com/2793/4363041295_061570c841_m.jpg'
p249
sS'Large'
p250
S'http://farm3.static.flickr.com/2793/4363041295_061570c841_b.jpg'
p251
sS'Square'
p252
S'http://farm3.static.flickr.com/2793/4363041295_061570c841_s.jpg'
p253
sS'Thumbnail'
p254
S'http://farm3.static.flickr.com/2793/4363041295_061570c841_t.jpg'
p255
sS'Medium'
p256
S'http://farm3.static.flickr.com/2793/4363041295_061570c841.jpg'
p257
ssg79
S'0'
sg80
S'2006-09-19 12:06:53'
p258
sg82
S'http://www.flickr.com/photos/jameselliottimages/4363041295/'
p259
sg5
g29
sg62
Nsbsg32
(i__main__
Photo
p260
(dp261
g16
S'93'
p262
sg67
(dp263
S'Small'
p264
S'http://farm5.static.flickr.com/4008/4363782816_df487181ec_m.jpg'
p265
sS'Large'
p266
S'http://farm5.static.flickr.com/4008/4363782816_df487181ec_b.jpg'
p267
sS'Square'
p268
S'http://farm5.static.flickr.com/4008/4363782816_df487181ec_s.jpg'
p269
sS'Thumbnail'
p270
S'http://farm5.static.flickr.com/4008/4363782816_df487181ec_t.jpg'
p271
sS'Medium'
p272
S'http://farm5.static.flickr.com/4008/4363782816_df487181ec.jpg'
p273
ssg79
S'0'
sg80
S'2008-06-08 08:29:50'
p274
sg82
S'http://www.flickr.com/photos/jameselliottimages/4363782816/'
p275
sg5
g32
sg62
Nsbsg38
(i__main__
Photo
p276
(dp277
g16
S'63'
p278
sg67
(dp279
S'Small'
p280
S'http://farm5.static.flickr.com/4035/4363039439_4eb8e85e69_m.jpg'
p281
sS'Large'
p282
S'http://farm5.static.flickr.com/4035/4363039439_4eb8e85e69_b.jpg'
p283
sS'Square'
p284
S'http://farm5.static.flickr.com/4035/4363039439_4eb8e85e69_s.jpg'
p285
sS'Thumbnail'
p286
S'http://farm5.static.flickr.com/4035/4363039439_4eb8e85e69_t.jpg'
p287
sS'Medium'
p288
S'http://farm5.static.flickr.com/4035/4363039439_4eb8e85e69.jpg'
p289
ssg79
S'0'
sg80
S'2006-09-19 10:31:09'
p290
sg82
S'http://www.flickr.com/photos/jameselliottimages/4363039439/'
p291
sg5
g38
sg62
Nsbsg22
(i__main__
Photo
p292
(dp293
g16
S'115'
p294
sg67
g51
sg79
S'0'
sg80
S'2008-05-24 08:06:08'
p295
sg82
S'http://www.flickr.com/photos/jameselliottimages/4363041657/'
p296
sg5
g22
sg62
Nsbsg40
(i__main__
Photo
p297
(dp298
g16
S'43'
p299
sg67
(dp300
S'Small'
p301
S'http://farm5.static.flickr.com/4006/4363039003_6b9bc46f9c_m.jpg'
p302
sS'Large'
p303
S'http://farm5.static.flickr.com/4006/4363039003_6b9bc46f9c_b.jpg'
p304
sS'Square'
p305
S'http://farm5.static.flickr.com/4006/4363039003_6b9bc46f9c_s.jpg'
p306
sS'Thumbnail'
p307
S'http://farm5.static.flickr.com/4006/4363039003_6b9bc46f9c_t.jpg'
p308
sS'Medium'
p309
S'http://farm5.static.flickr.com/4006/4363039003_6b9bc46f9c.jpg'
p310
ssg79
S'0'
sg80
S'2008-02-08 15:35:41'
p311
sg82
S'http://www.flickr.com/photos/jameselliottimages/4363039003/'
p312
sg5
g40
sg62
Nsbsg42
(i__main__
Photo
p313
(dp314
g16
S'30'
p315
sg67
(dp316
S'Small'
p317
S'http://farm5.static.flickr.com/4004/4363038571_7daa2fa572_m.jpg'
p318
sS'Large'
p319
S'http://farm5.static.flickr.com/4004/4363038571_7daa2fa572_b.jpg'
p320
sS'Square'
p321
S'http://farm5.static.flickr.com/4004/4363038571_7daa2fa572_s.jpg'
p322
sS'Thumbnail'
p323
S'http://farm5.static.flickr.com/4004/4363038571_7daa2fa572_t.jpg'
p324
sS'Medium'
p325
S'http://farm5.static.flickr.com/4004/4363038571_7daa2fa572.jpg'
p326
ssg79
S'0'
sg80
S'2008-01-22 14:25:54'
p327
sg82
S'http://www.flickr.com/photos/jameselliottimages/4363038571/'
p328
sg5
g42
sg62
Nsbsg46
(i__main__
Photo
p329
(dp330
g16
S'7'
sg67
(dp331
S'Small'
p332
S'http://farm5.static.flickr.com/4063/4363779936_32387ceda4_m.jpg'
p333
sS'Large'
p334
S'http://farm5.static.flickr.com/4063/4363779936_32387ceda4_b.jpg'
p335
sS'Square'
p336
S'http://farm5.static.flickr.com/4063/4363779936_32387ceda4_s.jpg'
p337
sS'Thumbnail'
p338
S'http://farm5.static.flickr.com/4063/4363779936_32387ceda4_t.jpg'
p339
sS'Medium'
p340
S'http://farm5.static.flickr.com/4063/4363779936_32387ceda4.jpg'
p341
ssg79
S'0'
sg80
S'2007-01-25 21:02:06'
p342
sg82
S'http://www.flickr.com/photos/jameselliottimages/4363779936/'
p343
sg5
g46
sg62
Nsbsg33
(i__main__
Photo
p344
(dp345
g16
S'87a'
p346
sg67
(dp347
S'Small'
p348
S'http://farm3.static.flickr.com/2715/4363040567_6896165a3b_m.jpg'
p349
sS'Large'
p350
S'http://farm3.static.flickr.com/2715/4363040567_6896165a3b_b.jpg'
p351
sS'Square'
p352
S'http://farm3.static.flickr.com/2715/4363040567_6896165a3b_s.jpg'
p353
sS'Thumbnail'
p354
S'http://farm3.static.flickr.com/2715/4363040567_6896165a3b_t.jpg'
p355
sS'Medium'
p356
S'http://farm3.static.flickr.com/2715/4363040567_6896165a3b.jpg'
p357
ssg79
S'0'
sg80
S'2008-05-18 07:38:43'
p358
sg82
S'http://www.flickr.com/photos/jameselliottimages/4363040567/'
p359
sg5
g33
sg62
Nsbsg34
(i__main__
Photo
p360
(dp361
g16
S'82'
p362
sg67
(dp363
S'Small'
p364
S'http://farm5.static.flickr.com/4033/4363040403_d0c15f660a_m.jpg'
p365
sS'Large'
p366
S'http://farm5.static.flickr.com/4033/4363040403_d0c15f660a_b.jpg'
p367
sS'Square'
p368
S'http://farm5.static.flickr.com/4033/4363040403_d0c15f660a_s.jpg'
p369
sS'Thumbnail'
p370
S'http://farm5.static.flickr.com/4033/4363040403_d0c15f660a_t.jpg'
p371
sS'Medium'
p372
S'http://farm5.static.flickr.com/4033/4363040403_d0c15f660a.jpg'
p373
ssg79
S'0'
sg80
S'2006-08-05 17:27:06'
p374
sg82
S'http://www.flickr.com/photos/jameselliottimages/4363040403/'
p375
sg5
g34
sg62
Nsbsg37
(i__main__
Photo
p376
(dp377
g16
S'65'
p378
sg67
(dp379
S'Small'
p380
S'http://farm5.static.flickr.com/4057/4363039713_2255b7341b_m.jpg'
p381
sS'Large'
p382
S'http://farm5.static.flickr.com/4057/4363039713_2255b7341b_b.jpg'
p383
sS'Square'
p384
S'http://farm5.static.flickr.com/4057/4363039713_2255b7341b_s.jpg'
p385
sS'Thumbnail'
p386
S'http://farm5.static.flickr.com/4057/4363039713_2255b7341b_t.jpg'
p387
sS'Medium'
p388
S'http://farm5.static.flickr.com/4057/4363039713_2255b7341b.jpg'
p389
ssg79
S'0'
sg80
S'2007-02-04 13:37:51'
p390
sg82
S'http://www.flickr.com/photos/jameselliottimages/4363039713/'
p391
sg5
g37
sg62
Nsbsg35
(i__main__
Photo
p392
(dp393
g16
S'76'
p394
sg67
(dp395
S'Small'
p396
S'http://farm3.static.flickr.com/2679/4363040133_ed0c1869a5_m.jpg'
p397
sS'Large'
p398
S'http://farm3.static.flickr.com/2679/4363040133_ed0c1869a5_b.jpg'
p399
sS'Square'
p400
S'http://farm3.static.flickr.com/2679/4363040133_ed0c1869a5_s.jpg'
p401
sS'Thumbnail'
p402
S'http://farm3.static.flickr.com/2679/4363040133_ed0c1869a5_t.jpg'
p403
sS'Medium'
p404
S'http://farm3.static.flickr.com/2679/4363040133_ed0c1869a5.jpg'
p405
ssg79
S'0'
sg80
S'2008-02-08 14:34:45'
p406
sg82
S'http://www.flickr.com/photos/jameselliottimages/4363040133/'
p407
sg5
g35
sg62
Nsbsg47
(i__main__
Photo
p408
(dp409
g16
S'4'
sg67
(dp410
S'Small'
p411
S'http://farm3.static.flickr.com/2758/4363037571_c38cb26071_m.jpg'
p412
sS'Large'
p413
S'http://farm3.static.flickr.com/2758/4363037571_c38cb26071_b.jpg'
p414
sS'Square'
p415
S'http://farm3.static.flickr.com/2758/4363037571_c38cb26071_s.jpg'
p416
sS'Thumbnail'
p417
S'http://farm3.static.flickr.com/2758/4363037571_c38cb26071_t.jpg'
p418
sS'Medium'
p419
S'http://farm3.static.flickr.com/2758/4363037571_c38cb26071.jpg'
p420
ssg79
S'0'
sg80
S'2007-02-04 13:36:31'
p421
sg82
S'http://www.flickr.com/photos/jameselliottimages/4363037571/'
p422
sg5
g47
sg62
Nsbsg41
(i__main__
Photo
p423
(dp424
g16
S'33'
p425
sg67
(dp426
S'Small'
p427
S'http://farm5.static.flickr.com/4034/4363780910_e0c714caef_m.jpg'
p428
sS'Large'
p429
S'http://farm5.static.flickr.com/4034/4363780910_e0c714caef_b.jpg'
p430
sS'Square'
p431
S'http://farm5.static.flickr.com/4034/4363780910_e0c714caef_s.jpg'
p432
sS'Thumbnail'
p433
S'http://farm5.static.flickr.com/4034/4363780910_e0c714caef_t.jpg'
p434
sS'Medium'
p435
S'http://farm5.static.flickr.com/4034/4363780910_e0c714caef.jpg'
p436
ssg79
S'0'
sg80
S'2008-01-22 15:06:08'
p437
sg82
S'http://www.flickr.com/photos/jameselliottimages/4363780910/'
p438
sg5
g41
sg62
Nsbsg30
(i__main__
Photo
p439
(dp440
g16
S'105'
p441
sg67
(dp442
S'Small'
p443
S'http://farm3.static.flickr.com/2694/4363783168_7cb63c5ac7_m.jpg'
p444
sS'Large'
p445
S'http://farm3.static.flickr.com/2694/4363783168_7cb63c5ac7_b.jpg'
p446
sS'Square'
p447
S'http://farm3.static.flickr.com/2694/4363783168_7cb63c5ac7_s.jpg'
p448
sS'Thumbnail'
p449
S'http://farm3.static.flickr.com/2694/4363783168_7cb63c5ac7_t.jpg'
p450
sS'Medium'
p451
S'http://farm3.static.flickr.com/2694/4363783168_7cb63c5ac7.jpg'
p452
ssg79
S'0'
sg80
S'2008-06-26 09:56:46'
p453
sg82
S'http://www.flickr.com/photos/jameselliottimages/4363783168/'
p454
sg5
g30
sg62
Nsbsg23
(i__main__
Photo
p455
(dp456
g16
S'138'
p457
sg67
(dp458
S'Small'
p459
S'http://farm3.static.flickr.com/2551/4363784270_52fdace8a6_m.jpg'
p460
sS'Large'
p461
S'http://farm3.static.flickr.com/2551/4363784270_52fdace8a6_b.jpg'
p462
sS'Square'
p463
S'http://farm3.static.flickr.com/2551/4363784270_52fdace8a6_s.jpg'
p464
sS'Thumbnail'
p465
S'http://farm3.static.flickr.com/2551/4363784270_52fdace8a6_t.jpg'
p466
sS'Medium'
p467
S'http://farm3.static.flickr.com/2551/4363784270_52fdace8a6.jpg'
p468
ssg79
S'0'
sg80
S'2008-06-26 10:57:19'
p469
sg82
S'http://www.flickr.com/photos/jameselliottimages/4363784270/'
p470
sg5
g23
sg62
Nsbst.